	.file	"main.c"
	.text
	.section	.rodata
	.align 8
.LC0:
	.string	"thread: %s, stack address: %p\n"
	.text
	.globl	mythread
	.type	mythread, @function
mythread:
.LFB0:
	.cfi_startproc
	pushq	%rbp
	.cfi_def_cfa_offset 16
	.cfi_offset 6, -16
	movq	%rsp, %rbp
	.cfi_def_cfa_register 6
	subq	$32, %rsp
	movq	%rdi, -24(%rbp)
	leaq	-4(%rbp), %rdx
	movq	-24(%rbp), %rax
	movq	%rax, %rsi
	leaq	.LC0(%rip), %rax
	movq	%rax, %rdi
	movl	$0, %eax
	call	printf@PLT
.L2:
	movl	$300, %edi
	call	sleep@PLT
	jmp	.L2
	.cfi_endproc
.LFE0:
	.size	mythread, .-mythread
	.section	.rodata
.LC1:
	.string	"A"
.LC2:
	.string	"main.c"
	.align 8
.LC3:
	.string	"pthread_create(&p1, ((void *)0), mythread, \"A\") == 0"
.LC4:
	.string	"B"
	.align 8
.LC5:
	.string	"pthread_create(&p2, ((void *)0), mythread, \"B\") == 0"
	.align 8
.LC6:
	.string	"pthread_join(p1, ((void *)0)) == 0"
	.align 8
.LC7:
	.string	"pthread_join(p2, ((void *)0)) == 0"
	.text
	.globl	main
	.type	main, @function
main:
.LFB1:
	.cfi_startproc
	pushq	%rbp
	.cfi_def_cfa_offset 16
	.cfi_offset 6, -16
	movq	%rsp, %rbp
	.cfi_def_cfa_register 6
	subq	$32, %rsp
	movl	%edi, -20(%rbp)
	movq	%rsi, -32(%rbp)
	leaq	-8(%rbp), %rax
	leaq	.LC1(%rip), %rdx
	movq	%rdx, %rcx
	leaq	mythread(%rip), %rdx
	movl	$0, %esi
	movq	%rax, %rdi
	call	pthread_create@PLT
	testl	%eax, %eax
	je	.L4
	leaq	__PRETTY_FUNCTION__.0(%rip), %rax
	movq	%rax, %rcx
	movl	$29, %edx
	leaq	.LC2(%rip), %rax
	movq	%rax, %rsi
	leaq	.LC3(%rip), %rax
	movq	%rax, %rdi
	call	__assert_fail@PLT
.L4:
	leaq	-16(%rbp), %rax
	leaq	.LC4(%rip), %rdx
	movq	%rdx, %rcx
	leaq	mythread(%rip), %rdx
	movl	$0, %esi
	movq	%rax, %rdi
	call	pthread_create@PLT
	testl	%eax, %eax
	je	.L5
	leaq	__PRETTY_FUNCTION__.0(%rip), %rax
	movq	%rax, %rcx
	movl	$30, %edx
	leaq	.LC2(%rip), %rax
	movq	%rax, %rsi
	leaq	.LC5(%rip), %rax
	movq	%rax, %rdi
	call	__assert_fail@PLT
.L5:
	movq	-8(%rbp), %rax
	movl	$0, %esi
	movq	%rax, %rdi
	call	pthread_join@PLT
	testl	%eax, %eax
	je	.L6
	leaq	__PRETTY_FUNCTION__.0(%rip), %rax
	movq	%rax, %rcx
	movl	$32, %edx
	leaq	.LC2(%rip), %rax
	movq	%rax, %rsi
	leaq	.LC6(%rip), %rax
	movq	%rax, %rdi
	call	__assert_fail@PLT
.L6:
	movq	-16(%rbp), %rax
	movl	$0, %esi
	movq	%rax, %rdi
	call	pthread_join@PLT
	testl	%eax, %eax
	je	.L7
	leaq	__PRETTY_FUNCTION__.0(%rip), %rax
	movq	%rax, %rcx
	movl	$33, %edx
	leaq	.LC2(%rip), %rax
	movq	%rax, %rsi
	leaq	.LC7(%rip), %rax
	movq	%rax, %rdi
	call	__assert_fail@PLT
.L7:
	movl	$0, %eax
	leave
	.cfi_def_cfa 7, 8
	ret
	.cfi_endproc
.LFE1:
	.size	main, .-main
	.section	.rodata
	.type	__PRETTY_FUNCTION__.0, @object
	.size	__PRETTY_FUNCTION__.0, 5
__PRETTY_FUNCTION__.0:
	.string	"main"
	.ident	"GCC: (Debian 12.2.0-14) 12.2.0"
	.section	.note.GNU-stack,"",@progbits
